target datalayout = "e-m:e-p270:32:32-p271:32:32-p272:64:64-i64:64-i128:128-f80:128-n8:16:32:64-S128"
target triple = "x86_64-pc-linux-gnu"

%class.AbstractClassHierarchyWalker.base = type <{ ptr, i32, [4 x i8], [4 x ptr], i32 }>
%class.LinkedConcreteMethodFinder = type { %class.AbstractClassHierarchyWalker.base, ptr, ptr, i32, i8, [4 x ptr] }

; Function Attrs: mustprogress nounwind uwtable
define hidden noundef ptr @_ZN26LinkedConcreteMethodFinder13select_methodEP13InstanceKlass(ptr noundef nonnull align 8 dereferenceable(112) %0, ptr noundef %1) #1 align 2 {
  %3 = alloca ptr, align 8
  %4 = alloca ptr, align 8
  %5 = alloca ptr, align 8
  %6 = alloca i8, align 1
  store ptr %0, ptr %3, align 8
  store ptr %1, ptr %4, align 8
  %7 = load ptr, ptr %3, align 8
  store ptr null, ptr %5, align 8
  %8 = getelementptr inbounds %class.LinkedConcreteMethodFinder, ptr %7, i32 0, i32 4
  %9 = load i8, ptr %8, align 4
  %10 = trunc i8 %9 to i1
  br i1 %10, label %11, label %18

11:                                               ; preds = %2
  %12 = load ptr, ptr %4, align 8
  %13 = getelementptr inbounds %class.LinkedConcreteMethodFinder, ptr %7, i32 0, i32 2
  %14 = load ptr, ptr %13, align 8
  %15 = getelementptr inbounds %class.LinkedConcreteMethodFinder, ptr %7, i32 0, i32 3
  %16 = load i32, ptr %15, align 8
  %17 = call noundef ptr @_ZN13InstanceKlass24method_at_itable_or_nullEPS_iRb(ptr noundef nonnull align 8 dereferenceable(464) %12, ptr noundef %14, i32 noundef %16, ptr noundef nonnull align 1 dereferenceable(1) %6)
  store ptr %17, ptr %5, align 8
  br label %23

18:                                               ; preds = %2
  %19 = load ptr, ptr %4, align 8
  %20 = getelementptr inbounds %class.LinkedConcreteMethodFinder, ptr %7, i32 0, i32 3
  %21 = load i32, ptr %20, align 8
  %22 = call noundef ptr @_ZN5Klass16method_at_vtableEi(ptr noundef nonnull align 8 dereferenceable(196) %19, i32 noundef %21)
  store ptr %22, ptr %5, align 8
  br label %23

23:                                               ; preds = %18, %11
  %24 = load ptr, ptr %5, align 8
  ret ptr %24
}