; Function Attrs: mustprogress nounwind uwtable
define hidden noundef ptr @_ZN26LinkedConcreteMethodFinder13select_methodEP13InstanceKlass(ptr nocapture noundef nonnull readonly align 8 dereferenceable(112) %0, ptr noundef %1) local_unnamed_addr #0 align 2 {
  %3 = alloca i8, align 1
  %4 = getelementptr inbounds i8, ptr %0, i64 76
  %5 = load i8, ptr %4, align 4
  %6 = trunc i8 %5 to i1
  br i1 %6, label %7, label %13

7:                                                ; preds = %2
  %8 = getelementptr inbounds i8, ptr %0, i64 64
  %9 = load ptr, ptr %8, align 8
  %10 = getelementptr inbounds i8, ptr %0, i64 72
  %11 = load i32, ptr %10, align 8
  %12 = call noundef ptr @_ZN13InstanceKlass24method_at_itable_or_nullEPS_iRb(ptr noundef nonnull align 8 dereferenceable(464) %1, ptr noundef %9, i32 noundef %11, ptr noundef nonnull align 1 dereferenceable(1) %3) #18
  br label %17

13:                                               ; preds = %2
  %14 = getelementptr inbounds i8, ptr %0, i64 72
  %15 = load i32, ptr %14, align 8
  %16 = tail call noundef ptr @_ZN5Klass16method_at_vtableEi(ptr noundef nonnull align 8 dereferenceable(196) %1, i32 noundef %15) #18
  br label %17

17:                                               ; preds = %13, %7
  %.0 = phi ptr [ %12, %7 ], [ %16, %13 ]
  ret ptr %.0
}